; Function Attrs: mustprogress nounwind uwtable
define void @_ZN4LIEF5MachO8LinkEdit4swapERS1_(ptr noundef nonnull align 8 dereferenceable(312) %0, ptr noundef nonnull align 8 dereferenceable(312) %1) local_unnamed_addr #1 align 2 {
  tail call void @_ZN4LIEF5MachO14SegmentCommand4swapERS1_(ptr noundef nonnull align 8 dereferenceable(216) %0, ptr noundef nonnull align 8 dereferenceable(216) %1) #21
  %3 = getelementptr inbounds nuw i8, ptr %0, i64 216
  %4 = getelementptr inbounds nuw i8, ptr %1, i64 216
  %5 = load ptr, ptr %3, align 8, !tbaa !3
  %6 = load ptr, ptr %4, align 8, !tbaa !3
  store ptr %6, ptr %3, align 8, !tbaa !3
  store ptr %5, ptr %4, align 8, !tbaa !3
  %7 = getelementptr inbounds nuw i8, ptr %0, i64 224
  %8 = getelementptr inbounds nuw i8, ptr %1, i64 224
  %9 = load ptr, ptr %7, align 8, !tbaa !8
  %10 = load ptr, ptr %8, align 8, !tbaa !8
  store ptr %10, ptr %7, align 8, !tbaa !8
  store ptr %9, ptr %8, align 8, !tbaa !8
  ret void
}